target datalayout = "e-m:e-p270:32:32-p271:32:32-p272:64:64-i64:64-i128:128-f80:128-n8:16:32:64-S128"
target triple = "x86_64-pc-linux-gnu"

%struct.b2Vec2 = type { float, float }
%struct.b2Filter = type { i64, i64, i32 }
%struct.b2Shape = type { i32, i32, i32, i32, i32, i32, float, float, float, float, float, i32, %struct.b2AABB, %struct.b2AABB, %struct.b2Vec2, i32, %struct.b2Filter, ptr, i32, %union.anon.0, i16, i8, i8, i8, i8 }
%struct.b2AABB = type { %struct.b2Vec2, %struct.b2Vec2 }
%union.anon.0 = type { %struct.b2Polygon }
%struct.b2Polygon = type { [8 x %struct.b2Vec2], [8 x %struct.b2Vec2], %struct.b2Vec2, float, i32 }
%struct.b2MassData = type { float, %struct.b2Vec2, float }

; Function Attrs: nounwind uwtable
define hidden { <2 x float>, <2 x float> } @b2ComputeShapeMass(ptr noundef %0) #3 {
  %2 = alloca %struct.b2MassData, align 4
  %3 = alloca ptr, align 8
  store ptr %0, ptr %3, align 8, !tbaa !34
  %4 = load ptr, ptr %3, align 8, !tbaa !34
  %5 = getelementptr inbounds nuw %struct.b2Shape, ptr %4, i32 0, i32 5
  %6 = load i32, ptr %5, align 4, !tbaa !201
  switch i32 %6, label %40 [
    i32 1, label %7
    i32 0, label %18
    i32 3, label %29
  ]

7:                                                ; preds = %1
  %8 = load ptr, ptr %3, align 8, !tbaa !34
  %9 = getelementptr inbounds nuw %struct.b2Shape, ptr %8, i32 0, i32 19
  %10 = load ptr, ptr %3, align 8, !tbaa !34
  %11 = getelementptr inbounds nuw %struct.b2Shape, ptr %10, i32 0, i32 6
  %12 = load float, ptr %11, align 8, !tbaa !203
  %13 = call { <2 x float>, <2 x float> } @b2ComputeCapsuleMass(ptr noundef %9, float noundef %12)
  %14 = getelementptr inbounds nuw { <2 x float>, <2 x float> }, ptr %2, i32 0, i32 0
  %15 = extractvalue { <2 x float>, <2 x float> } %13, 0
  store <2 x float> %15, ptr %14, align 4
  %16 = getelementptr inbounds nuw { <2 x float>, <2 x float> }, ptr %2, i32 0, i32 1
  %17 = extractvalue { <2 x float>, <2 x float> } %13, 1
  store <2 x float> %17, ptr %16, align 4
  br label %44

18:                                               ; preds = %1
  %19 = load ptr, ptr %3, align 8, !tbaa !34
  %20 = getelementptr inbounds nuw %struct.b2Shape, ptr %19, i32 0, i32 19
  %21 = load ptr, ptr %3, align 8, !tbaa !34
  %22 = getelementptr inbounds nuw %struct.b2Shape, ptr %21, i32 0, i32 6
  %23 = load float, ptr %22, align 8, !tbaa !203
  %24 = call { <2 x float>, <2 x float> } @b2ComputeCircleMass(ptr noundef %20, float noundef %23)
  %25 = getelementptr inbounds nuw { <2 x float>, <2 x float> }, ptr %2, i32 0, i32 0
  %26 = extractvalue { <2 x float>, <2 x float> } %24, 0
  store <2 x float> %26, ptr %25, align 4
  %27 = getelementptr inbounds nuw { <2 x float>, <2 x float> }, ptr %2, i32 0, i32 1
  %28 = extractvalue { <2 x float>, <2 x float> } %24, 1
  store <2 x float> %28, ptr %27, align 4
  br label %44

29:                                               ; preds = %1
  %30 = load ptr, ptr %3, align 8, !tbaa !34
  %31 = getelementptr inbounds nuw %struct.b2Shape, ptr %30, i32 0, i32 19
  %32 = load ptr, ptr %3, align 8, !tbaa !34
  %33 = getelementptr inbounds nuw %struct.b2Shape, ptr %32, i32 0, i32 6
  %34 = load float, ptr %33, align 8, !tbaa !203
  %35 = call { <2 x float>, <2 x float> } @b2ComputePolygonMass(ptr noundef %31, float noundef %34)
  %36 = getelementptr inbounds nuw { <2 x float>, <2 x float> }, ptr %2, i32 0, i32 0
  %37 = extractvalue { <2 x float>, <2 x float> } %35, 0
  store <2 x float> %37, ptr %36, align 4
  %38 = getelementptr inbounds nuw { <2 x float>, <2 x float> }, ptr %2, i32 0, i32 1
  %39 = extractvalue { <2 x float>, <2 x float> } %35, 1
  store <2 x float> %39, ptr %38, align 4
  br label %44

40:                                               ; preds = %1
  %41 = getelementptr inbounds nuw %struct.b2MassData, ptr %2, i32 0, i32 0
  store float 0.000000e+00, ptr %41, align 4, !tbaa !234
  %42 = getelementptr inbounds nuw %struct.b2MassData, ptr %2, i32 0, i32 1
  call void @llvm.memset.p0.i64(ptr align 4 %42, i8 0, i64 8, i1 false)
  %43 = getelementptr inbounds nuw %struct.b2MassData, ptr %2, i32 0, i32 2
  store float 0.000000e+00, ptr %43, align 4, !tbaa !236
  br label %44

44:                                               ; preds = %40, %29, %18, %7
  %45 = load { <2 x float>, <2 x float> }, ptr %2, align 4
  ret { <2 x float>, <2 x float> } %45
}