; Function Attrs: nounwind uwtable
define hidden { <2 x float>, <2 x float> } @b2ComputeShapeMass(ptr noundef %0) local_unnamed_addr #3 {
  %2 = getelementptr inbounds nuw i8, ptr %0, i64 20
  %3 = load i32, ptr %2, align 4, !tbaa !171
  switch i32 %3, label %25 [
    i32 1, label %4
    i32 0, label %11
    i32 3, label %18
  ]

4:                                                ; preds = %1
  %5 = getelementptr inbounds nuw i8, ptr %0, i64 132
  %6 = getelementptr inbounds nuw i8, ptr %0, i64 24
  %7 = load float, ptr %6, align 8, !tbaa !173
  %8 = tail call { <2 x float>, <2 x float> } @b2ComputeCapsuleMass(ptr noundef nonnull %5, float noundef %7) #10
  %9 = extractvalue { <2 x float>, <2 x float> } %8, 0
  %10 = extractvalue { <2 x float>, <2 x float> } %8, 1
  br label %25

11:                                               ; preds = %1
  %12 = getelementptr inbounds nuw i8, ptr %0, i64 132
  %13 = getelementptr inbounds nuw i8, ptr %0, i64 24
  %14 = load float, ptr %13, align 8, !tbaa !173
  %15 = tail call { <2 x float>, <2 x float> } @b2ComputeCircleMass(ptr noundef nonnull %12, float noundef %14) #10
  %16 = extractvalue { <2 x float>, <2 x float> } %15, 0
  %17 = extractvalue { <2 x float>, <2 x float> } %15, 1
  br label %25

18:                                               ; preds = %1
  %19 = getelementptr inbounds nuw i8, ptr %0, i64 132
  %20 = getelementptr inbounds nuw i8, ptr %0, i64 24
  %21 = load float, ptr %20, align 8, !tbaa !173
  %22 = tail call { <2 x float>, <2 x float> } @b2ComputePolygonMass(ptr noundef nonnull %19, float noundef %21) #10
  %23 = extractvalue { <2 x float>, <2 x float> } %22, 0
  %24 = extractvalue { <2 x float>, <2 x float> } %22, 1
  br label %25

25:                                               ; preds = %1, %18, %11, %4
  %.sroa.0.0 = phi <2 x float> [ %23, %18 ], [ %16, %11 ], [ %9, %4 ], [ zeroinitializer, %1 ]
  %.sroa.6.0 = phi <2 x float> [ %24, %18 ], [ %17, %11 ], [ %10, %4 ], [ zeroinitializer, %1 ]
  %.fca.0.insert = insertvalue { <2 x float>, <2 x float> } poison, <2 x float> %.sroa.0.0, 0
  %.fca.1.insert = insertvalue { <2 x float>, <2 x float> } %.fca.0.insert, <2 x float> %.sroa.6.0, 1
  ret { <2 x float>, <2 x float> } %.fca.1.insert
}